Certificate:
    Data:
        Version: 3 (0x2)
        Serial Number: 268435668 (0x100000d4)
    Signature Algorithm: sha256WithRSAEncryption
        Issuer: C=DE, ST=Hessen, O=privacyidea, CN=CA001
        Validity
            Not Before: Sep 18 11:42:04 2017 GMT
            Not After : Oct  8 11:42:04 2019 GMT
        Subject: CN=Steve Test/emailAddress=steve@openssl.org
        Subject Public Key Info:
            Public Key Algorithm: rsaEncryption
                Public-Key: (2048 bit)
                Modulus:
                    00:d2:81:89:20:51:48:0f:73:f4:11:32:24:d5:1f:
                    1c:fd:5c:f5:b6:e6:c5:f0:52:81:dc:d2:af:66:4a:
                    7c:93:31:61:5c:af:d1:6d:06:70:03:60:7c:72:0c:
                    88:dd:49:cd:9e:02:6c:d2:5a:d7:53:0f:f3:da:be:
                    69:64:b5:0f:0c:00:e3:b3:50:47:a3:b3:9b:ba:13:
                    50:d6:58:5a:4b:ab:39:e0:11:ca:0a:27:67:03:78:
                    22:66:6d:92:1e:1b:5c:49:ae:e6:6b:d1:8e:3b:9d:
                    06:d3:c6:ac:4d:53:43:10:ab:e8:96:c1:87:82:97:
                    99:8f:20:d3:99:12:37:31:84:e1:8a:ff:29:03:5f:
                    22:90:3e:7f:9b:e0:20:c1:ad:dc:ae:4c:39:1a:31:
                    96:17:02:8c:b2:d9:b4:0d:20:12:9b:7d:86:54:fd:
                    33:fd:c1:2a:62:46:f8:60:96:cf:6e:01:6f:22:df:
                    13:47:e7:97:ec:05:72:23:a3:62:f8:fa:ef:ac:9c:
                    72:f0:37:cb:2f:37:cf:90:a8:27:51:86:c6:d7:78:
                    08:8f:7e:25:a2:15:70:a2:fb:1c:b6:15:5e:a0:97:
                    8b:81:4c:09:28:8a:27:3b:94:bc:71:db:5b:71:37:
                    9a:2b:16:e0:6f:b5:c9:f5:4b:4f:20:ba:65:cf:af:
                    ad:ad
                Exponent: 65537 (0x10001)
        X509v3 extensions:
            X509v3 Key Usage: 
                Digital Signature, Key Encipherment
            X509v3 Basic Constraints: 
                CA:FALSE
            Netscape Cert Type: 
                SSL Server
            Netscape Comment: 
                OpenSSL Generated Server Certificate
            X509v3 Subject Key Identifier: 
                E5:25:6D:3E:AF:0D:DD:3F:4C:F2:45:19:39:D5:14:DB:7E:9C:C0:AD
            X509v3 Authority Key Identifier: 
                keyid:F4:A7:C0:CC:91:46:AF:64:F3:91:F2:27:F8:C8:B2:6F:8A:87:32:73
                DirName:/C=DE/ST=Hessen/O=privacyidea/CN=CA001
                serial:FB:C8:EB:AC:83:CD:12:07

            X509v3 Extended Key Usage: 
                TLS Web Server Authentication
    Signature Algorithm: sha256WithRSAEncryption
         63:22:55:dd:ed:72:4c:e0:dd:5c:3b:e6:e9:48:3b:ee:63:c2:
         67:ad:0a:30:0b:5a:51:e5:f3:ec:ab:3e:10:99:53:43:f5:69:
         a4:0d:b4:d4:36:88:91:1b:52:e4:fe:cd:af:52:52:8c:c1:81:
         e0:e1:00:cc:e7:51:a0:de:50:80:b6:87:bc:bc:4b:21:21:7a:
         1a:66:26:00:59:fb:8f:50:f6:cd:12:48:7e:2f:3d:13:b4:d3:
         48:68:55:10:9d:0d:fd:54:21:54:78:73:a1:e7:1d:f2:00:41:
         56:13:26:de:7b:09:1b:d3:78:cb:7b:46:a1:90:25:c0:cd:c8:
         42:97:cf:c0:e9:1f:29:dc:a5:30:e7:44:ec:3b:78:68:fb:08:
         8d:60:ad:c5:58:3b:4a:b3:1e:a2:a8:8e:56:66:06:af:3c:4e:
         13:a3:cc:9d:de:26:51:fb:5c:ca:6d:60:56:70:63:b3:2b:24:
         dc:af:02:18:7b:1b:b6:df:89:e2:d0:52:e7:6f:ed:8e:9f:8e:
         75:03:d9:0f:0a:1b:0f:9e:77:47:e2:63:dc:7d:93:99:3c:ba:
         8a:22:41:17:38:e6:b0:89:07:48:93:8f:ff:a8:58:06:78:50:
         89:94:67:b2:0c:ff:2a:54:9d:9c:c8:de:0f:0e:c3:bf:ca:b4:
         be:45:47:de
-----BEGIN CERTIFICATE-----
MIIECTCCAvGgAwIBAgIEEAAA1DANBgkqhkiG9w0BAQsFADBEMQswCQYDVQQGEwJE
RTEPMA0GA1UECAwGSGVzc2VuMRQwEgYDVQQKDAtwcml2YWN5aWRlYTEOMAwGA1UE
AwwFQ0EwMDEwHhcNMTcwOTE4MTE0MjA0WhcNMTkxMDA4MTE0MjA0WjA3MRMwEQYD
VQQDDApTdGV2ZSBUZXN0MSAwHgYJKoZIhvcNAQkBFhFzdGV2ZUBvcGVuc3NsLm9y
ZzCCASIwDQYJKoZIhvcNAQEBBQADggEPADCCAQoCggEBANKBiSBRSA9z9BEyJNUf
HP1c9bbmxfBSgdzSr2ZKfJMxYVyv0W0GcANgfHIMiN1JzZ4CbNJa11MP89q+aWS1
DwwA47NQR6Ozm7oTUNZYWkurOeARygonZwN4ImZtkh4bXEmu5mvRjjudBtPGrE1T
QxCr6JbBh4KXmY8g05kSNzGE4Yr/KQNfIpA+f5vgIMGt3K5MORoxlhcCjLLZtA0g
Ept9hlT9M/3BKmJG+GCWz24BbyLfE0fnl+wFciOjYvj676yccvA3yy83z5CoJ1GG
xtd4CI9+JaIVcKL7HLYVXqCXi4FMCSiKJzuUvHHbW3E3misW4G+1yfVLTyC6Zc+v
ra0CAwEAAaOCAQ4wggEKMAsGA1UdDwQEAwIFoDAJBgNVHRMEAjAAMBEGCWCGSAGG
+EIBAQQEAwIGQDAzBglghkgBhvhCAQ0EJhYkT3BlblNTTCBHZW5lcmF0ZWQgU2Vy
dmVyIENlcnRpZmljYXRlMB0GA1UdDgQWBBTlJW0+rw3dP0zyRRk51RTbfpzArTB0
BgNVHSMEbTBrgBT0p8DMkUavZPOR8if4yLJviocyc6FIpEYwRDELMAkGA1UEBhMC
REUxDzANBgNVBAgMBkhlc3NlbjEUMBIGA1UECgwLcHJpdmFjeWlkZWExDjAMBgNV
BAMMBUNBMDAxggkA+8jrrIPNEgcwEwYDVR0lBAwwCgYIKwYBBQUHAwEwDQYJKoZI
hvcNAQELBQADggEBAGMiVd3tckzg3Vw75ulIO+5jwmetCjALWlHl8+yrPhCZU0P1
aaQNtNQ2iJEbUuT+za9SUozBgeDhAMznUaDeUIC2h7y8SyEhehpmJgBZ+49Q9s0S
SH4vPRO000hoVRCdDf1UIVR4c6HnHfIAQVYTJt57CRvTeMt7RqGQJcDNyEKXz8Dp
HyncpTDnROw7eGj7CI1grcVYO0qzHqKojlZmBq88ThOjzJ3eJlH7XMptYFZwY7Mr
JNyvAhh7G7bfieLQUudv7Y6fjnUD2Q8KGw+ed0fiY9x9k5k8uooiQRc45rCJB0iT
j/+oWAZ4UImUZ7IM/ypUnZzI3g8Ow7/KtL5FR94=
-----END CERTIFICATE-----
