Certificate:
    Data:
        Version: 3 (0x2)
        Serial Number: 268435664 (0x100000d0)
    Signature Algorithm: sha256WithRSAEncryption
        Issuer: C=DE, ST=Hessen, O=privacyidea, CN=CA001
        Validity
            Not Before: Sep 18 11:40:14 2017 GMT
            Not After : Sep 18 11:40:14 2018 GMT
        Subject: C=DE, ST=Hessen, O=privacyidea, CN=requester.localdomain
        Subject Public Key Info:
            Public Key Algorithm: rsaEncryption
                Public-Key: (2048 bit)
                Modulus:
                    00:cd:be:14:4f:fa:ce:01:3f:42:22:1b:1d:9c:af:
                    dd:92:d2:7f:db:6c:b7:3e:39:43:43:6b:13:03:f1:
                    05:f4:07:74:bc:76:69:28:0b:af:19:8e:d7:fc:e3:
                    cd:c6:58:f2:ca:7f:08:6d:53:fc:07:02:44:24:c6:
                    b4:34:4c:8c:04:fe:33:0e:40:e2:20:ba:02:73:5a:
                    f7:f5:4f:63:6e:cc:c6:b6:df:54:1d:37:39:7d:51:
                    36:26:5f:bd:dc:3f:a8:8b:6b:a2:ae:b6:9d:d6:21:
                    e7:df:41:b8:7a:28:2a:68:48:ca:a8:2d:ed:e1:e9:
                    46:5e:5a:72:6d:b4:84:38:87:91:fd:94:11:0b:28:
                    84:c6:c2:2f:2a:fb:01:f9:36:7a:09:75:d1:33:88:
                    3c:73:41:5b:c8:bf:94:89:70:a1:f0:c0:b9:2e:50:
                    53:1e:b1:17:64:69:f4:2d:81:e0:a9:0d:0e:32:e9:
                    ba:55:8a:85:f1:1b:6f:49:79:b4:7f:88:c3:0d:3e:
                    54:88:9b:3d:1f:38:8c:04:f3:ee:6a:63:2b:f5:c6:
                    db:b4:83:aa:c4:78:41:3a:7d:4b:e1:c8:3e:71:ca:
                    1b:61:59:ea:c6:c4:ca:32:5e:c9:e9:bf:12:29:e6:
                    c6:c3:63:fe:a0:55:da:7a:f1:60:98:4d:26:ed:fa:
                    70:2d
                Exponent: 65537 (0x10001)
        X509v3 extensions:
            X509v3 Key Usage: 
                Digital Signature, Key Encipherment
            X509v3 Basic Constraints: 
                CA:FALSE
            Netscape Cert Type: 
                SSL Server
            Netscape Comment: 
                OpenSSL Generated Server Certificate
            X509v3 Subject Key Identifier: 
                53:3F:ED:5D:09:07:B3:65:7B:AB:45:C9:24:5B:09:77:80:0A:96:ED
            X509v3 Authority Key Identifier: 
                keyid:F4:A7:C0:CC:91:46:AF:64:F3:91:F2:27:F8:C8:B2:6F:8A:87:32:73
                DirName:/C=DE/ST=Hessen/O=privacyidea/CN=CA001
                serial:FB:C8:EB:AC:83:CD:12:07

            X509v3 Extended Key Usage: 
                TLS Web Server Authentication
    Signature Algorithm: sha256WithRSAEncryption
         5e:7e:ad:c8:2e:0b:9e:bb:68:5f:43:8b:be:bc:ff:ab:a4:a1:
         8f:2d:ac:b2:40:36:77:c3:e5:75:c5:8d:5b:05:a3:a3:02:aa:
         26:6f:62:d4:e0:31:31:21:10:82:3d:f9:41:34:6d:bd:4c:91:
         bb:5b:2b:66:90:20:ac:7c:e0:8d:4d:14:09:61:c0:84:7d:ee:
         48:2f:5f:33:a5:b0:43:8a:3f:03:9c:e9:26:a3:e5:cf:64:7b:
         af:8c:26:92:49:6c:e1:2a:5a:6f:0d:a0:df:8f:b9:e4:80:76:
         db:3f:87:55:70:8c:b1:82:fa:e6:3e:78:23:e3:8b:64:9c:c0:
         54:38:7b:c4:3b:a5:37:4b:2f:a6:d1:88:e7:95:be:24:f2:cb:
         b9:fa:bf:70:dc:02:54:34:2e:04:57:f0:f8:10:40:dc:e8:e9:
         dd:f6:d8:38:73:c8:53:b8:c6:44:82:48:17:2f:b7:e5:32:bc:
         9c:f2:46:e8:f0:64:17:fe:99:df:80:21:12:08:6e:ae:f1:90:
         4e:f8:ca:5f:a9:e7:8b:59:ba:b4:54:a6:f1:e7:71:45:b2:06:
         a1:5e:02:18:9e:2d:7e:12:6c:46:ed:e3:f1:ef:b9:eb:df:f0:
         98:df:f2:02:78:d9:a2:3d:81:c1:80:3f:6b:53:52:fa:88:6c:
         c3:b2:27:80
-----BEGIN CERTIFICATE-----
MIIEJjCCAw6gAwIBAgIEEAAA0DANBgkqhkiG9w0BAQsFADBEMQswCQYDVQQGEwJE
RTEPMA0GA1UECAwGSGVzc2VuMRQwEgYDVQQKDAtwcml2YWN5aWRlYTEOMAwGA1UE
AwwFQ0EwMDEwHhcNMTcwOTE4MTE0MDE0WhcNMTgwOTE4MTE0MDE0WjBUMQswCQYD
VQQGEwJERTEPMA0GA1UECAwGSGVzc2VuMRQwEgYDVQQKDAtwcml2YWN5aWRlYTEe
MBwGA1UEAwwVcmVxdWVzdGVyLmxvY2FsZG9tYWluMIIBIjANBgkqhkiG9w0BAQEF
AAOCAQ8AMIIBCgKCAQEAzb4UT/rOAT9CIhsdnK/dktJ/22y3PjlDQ2sTA/EF9Ad0
vHZpKAuvGY7X/OPNxljyyn8IbVP8BwJEJMa0NEyMBP4zDkDiILoCc1r39U9jbszG
tt9UHTc5fVE2Jl+93D+oi2uirrad1iHn30G4eigqaEjKqC3t4elGXlpybbSEOIeR
/ZQRCyiExsIvKvsB+TZ6CXXRM4g8c0FbyL+UiXCh8MC5LlBTHrEXZGn0LYHgqQ0O
Mum6VYqF8RtvSXm0f4jDDT5UiJs9HziMBPPuamMr9cbbtIOqxHhBOn1L4cg+ccob
YVnqxsTKMl7J6b8SKebGw2P+oFXaevFgmE0m7fpwLQIDAQABo4IBDjCCAQowCwYD
VR0PBAQDAgWgMAkGA1UdEwQCMAAwEQYJYIZIAYb4QgEBBAQDAgZAMDMGCWCGSAGG
+EIBDQQmFiRPcGVuU1NMIEdlbmVyYXRlZCBTZXJ2ZXIgQ2VydGlmaWNhdGUwHQYD
VR0OBBYEFFM/7V0JB7Nle6tFySRbCXeACpbtMHQGA1UdIwRtMGuAFPSnwMyRRq9k
85HyJ/jIsm+KhzJzoUikRjBEMQswCQYDVQQGEwJERTEPMA0GA1UECAwGSGVzc2Vu
MRQwEgYDVQQKDAtwcml2YWN5aWRlYTEOMAwGA1UEAwwFQ0EwMDGCCQD7yOusg80S
BzATBgNVHSUEDDAKBggrBgEFBQcDATANBgkqhkiG9w0BAQsFAAOCAQEAXn6tyC4L
nrtoX0OLvrz/q6Shjy2sskA2d8PldcWNWwWjowKqJm9i1OAxMSEQgj35QTRtvUyR
u1srZpAgrHzgjU0UCWHAhH3uSC9fM6WwQ4o/A5zpJqPlz2R7r4wmkkls4Spabw2g
34+55IB22z+HVXCMsYL65j54I+OLZJzAVDh7xDulN0svptGI55W+JPLLufq/cNwC
VDQuBFfw+BBA3Ojp3fbYOHPIU7jGRIJIFy+35TK8nPJG6PBkF/6Z34AhEghurvGQ
TvjKX6nni1m6tFSm8edxRbIGoV4CGJ4tfhJsRu3j8e+569/wmN/yAnjZoj2BwYA/
a1NS+ohsw7IngA==
-----END CERTIFICATE-----
