Certificate:
    Data:
        Version: 3 (0x2)
        Serial Number: 268435666 (0x100000d2)
    Signature Algorithm: sha256WithRSAEncryption
        Issuer: C=DE, ST=Hessen, O=privacyidea, CN=CA001
        Validity
            Not Before: Sep 18 11:42:04 2017 GMT
            Not After : Sep 18 11:42:04 2018 GMT
        Subject: C=DE, ST=Hessen, O=privacyidea, CN=usercert
        Subject Public Key Info:
            Public Key Algorithm: rsaEncryption
                Public-Key: (2048 bit)
                Modulus:
                    00:dc:2f:d1:5f:29:97:d4:7c:c3:53:c8:30:bd:4b:
                    67:70:2c:24:6b:b8:5e:eb:21:7a:48:12:56:7c:81:
                    5c:48:75:b6:68:eb:f6:f2:98:4e:50:51:d1:7f:6c:
                    73:f3:0a:a7:ae:be:48:5e:e5:d6:e1:d9:2a:7c:32:
                    6e:4e:fd:08:f6:5a:54:49:23:73:c3:b9:07:18:d1:
                    ef:b3:ac:f8:8a:dc:94:96:a4:90:3a:8e:74:df:e6:
                    0d:37:1b:bd:5b:b7:25:1a:56:39:da:6f:91:aa:5e:
                    1c:74:f3:f9:7c:14:01:83:12:65:76:c7:bb:fe:36:
                    5b:95:e9:72:65:83:ed:3e:98:30:71:fa:87:dd:a3:
                    36:5a:30:03:2e:26:e0:61:d1:bf:02:3f:b6:06:1f:
                    4a:89:28:1c:5c:a2:ff:4e:be:94:e6:8c:e0:da:82:
                    f1:9d:29:32:48:30:73:b4:04:f6:42:1e:be:f7:e2:
                    32:32:27:3c:9d:89:2f:70:3e:85:9a:6f:5c:c5:09:
                    c0:8c:32:2f:72:22:c9:d2:95:1f:b6:ac:72:60:72:
                    b7:82:4d:6b:ce:5b:e3:00:d0:d2:2f:58:c6:e0:10:
                    e5:51:ca:4d:3b:2e:e6:7e:ab:84:d6:56:f1:93:35:
                    a0:93:64:26:81:75:2f:91:b5:16:06:38:0b:db:cc:
                    2d:07
                Exponent: 65537 (0x10001)
        X509v3 extensions:
            X509v3 Key Usage: 
                Digital Signature, Key Encipherment
            X509v3 Basic Constraints: 
                CA:FALSE
            Netscape Cert Type: 
                SSL Server
            Netscape Comment: 
                OpenSSL Generated Server Certificate
            X509v3 Subject Key Identifier: 
                FC:14:D1:F0:4B:8D:00:90:F2:F5:B8:71:9E:4E:97:C3:92:54:AD:0B
            X509v3 Authority Key Identifier: 
                keyid:F4:A7:C0:CC:91:46:AF:64:F3:91:F2:27:F8:C8:B2:6F:8A:87:32:73
                DirName:/C=DE/ST=Hessen/O=privacyidea/CN=CA001
                serial:FB:C8:EB:AC:83:CD:12:07

            X509v3 Extended Key Usage: 
                TLS Web Server Authentication
    Signature Algorithm: sha256WithRSAEncryption
         41:ae:12:54:28:60:70:5f:c8:5f:9a:33:95:1e:9d:9d:73:ce:
         1b:f3:96:14:49:04:d8:2b:b9:bd:88:83:51:70:53:af:e9:b7:
         9e:23:d9:05:d3:5f:96:b6:43:f0:b7:01:67:e0:3c:2e:16:ae:
         08:2d:b8:64:43:1a:6c:92:64:9e:dc:25:0e:7c:61:c7:c1:17:
         e1:db:86:96:10:57:94:2d:9f:e1:be:78:a0:18:75:02:2f:b0:
         fe:f8:45:39:13:25:a1:f1:bc:a1:6a:90:b3:93:1f:e5:4e:c7:
         c6:1c:e4:f7:b7:57:f9:f8:c7:2d:cd:d8:9f:ea:81:60:6c:24:
         88:bd:60:94:28:24:54:44:a1:4c:d9:b0:88:22:ed:dd:a4:35:
         ca:fc:43:18:7f:72:48:27:14:90:d0:d3:53:84:98:65:c8:7e:
         fe:0f:8e:03:94:15:d2:c1:ff:67:4c:f7:d4:61:1b:04:1b:e6:
         49:b7:e4:1a:79:3a:3f:2e:4e:41:26:74:e3:b5:22:46:c7:e1:
         1b:4a:80:8b:9c:f5:27:42:f7:7d:00:98:8f:92:93:f3:e4:3a:
         f7:d4:2a:72:6a:e9:55:f7:4e:3a:5d:f6:c2:b8:11:4d:50:d2:
         0a:07:64:21:aa:5f:9d:ad:d5:a1:6d:02:76:41:f7:76:42:85:
         63:c9:11:a8
-----BEGIN CERTIFICATE-----
MIIEGTCCAwGgAwIBAgIEEAAA0jANBgkqhkiG9w0BAQsFADBEMQswCQYDVQQGEwJE
RTEPMA0GA1UECAwGSGVzc2VuMRQwEgYDVQQKDAtwcml2YWN5aWRlYTEOMAwGA1UE
AwwFQ0EwMDEwHhcNMTcwOTE4MTE0MjA0WhcNMTgwOTE4MTE0MjA0WjBHMQswCQYD
VQQGEwJERTEPMA0GA1UECAwGSGVzc2VuMRQwEgYDVQQKDAtwcml2YWN5aWRlYTER
MA8GA1UEAwwIdXNlcmNlcnQwggEiMA0GCSqGSIb3DQEBAQUAA4IBDwAwggEKAoIB
AQDcL9FfKZfUfMNTyDC9S2dwLCRruF7rIXpIElZ8gVxIdbZo6/bymE5QUdF/bHPz
Cqeuvkhe5dbh2Sp8Mm5O/Qj2WlRJI3PDuQcY0e+zrPiK3JSWpJA6jnTf5g03G71b
tyUaVjnab5GqXhx08/l8FAGDEmV2x7v+NluV6XJlg+0+mDBx+ofdozZaMAMuJuBh
0b8CP7YGH0qJKBxcov9OvpTmjODagvGdKTJIMHO0BPZCHr734jIyJzydiS9wPoWa
b1zFCcCMMi9yIsnSlR+2rHJgcreCTWvOW+MA0NIvWMbgEOVRyk07LuZ+q4TWVvGT
NaCTZCaBdS+RtRYGOAvbzC0HAgMBAAGjggEOMIIBCjALBgNVHQ8EBAMCBaAwCQYD
VR0TBAIwADARBglghkgBhvhCAQEEBAMCBkAwMwYJYIZIAYb4QgENBCYWJE9wZW5T
U0wgR2VuZXJhdGVkIFNlcnZlciBDZXJ0aWZpY2F0ZTAdBgNVHQ4EFgQU/BTR8EuN
AJDy9bhxnk6Xw5JUrQswdAYDVR0jBG0wa4AU9KfAzJFGr2TzkfIn+Miyb4qHMnOh
SKRGMEQxCzAJBgNVBAYTAkRFMQ8wDQYDVQQIDAZIZXNzZW4xFDASBgNVBAoMC3By
aXZhY3lpZGVhMQ4wDAYDVQQDDAVDQTAwMYIJAPvI66yDzRIHMBMGA1UdJQQMMAoG
CCsGAQUFBwMBMA0GCSqGSIb3DQEBCwUAA4IBAQBBrhJUKGBwX8hfmjOVHp2dc84b
85YUSQTYK7m9iINRcFOv6beeI9kF01+WtkPwtwFn4DwuFq4ILbhkQxpskmSe3CUO
fGHHwRfh24aWEFeULZ/hvnigGHUCL7D++EU5EyWh8byhapCzkx/lTsfGHOT3t1f5
+Mctzdif6oFgbCSIvWCUKCRURKFM2bCIIu3dpDXK/EMYf3JIJxSQ0NNThJhlyH7+
D44DlBXSwf9nTPfUYRsEG+ZJt+QaeTo/Lk5BJnTjtSJGx+EbSoCLnPUnQvd9AJiP
kpPz5Dr31CpyaulV9046XfbCuBFNUNIKB2Qhql+drdWhbQJ2Qfd2QoVjyRGo
-----END CERTIFICATE-----
