Certificate:
    Data:
        Version: 3 (0x2)
        Serial Number: 268435665 (0x100000d1)
    Signature Algorithm: sha256WithRSAEncryption
        Issuer: C=DE, ST=Hessen, O=privacyidea, CN=CA001
        Validity
            Not Before: Sep 18 11:42:03 2017 GMT
            Not After : Sep 18 11:42:03 2018 GMT
        Subject: C=DE, ST=Hessen, O=privacyidea, CN=requester.localdomain
        Subject Public Key Info:
            Public Key Algorithm: rsaEncryption
                Public-Key: (2048 bit)
                Modulus:
                    00:cd:be:14:4f:fa:ce:01:3f:42:22:1b:1d:9c:af:
                    dd:92:d2:7f:db:6c:b7:3e:39:43:43:6b:13:03:f1:
                    05:f4:07:74:bc:76:69:28:0b:af:19:8e:d7:fc:e3:
                    cd:c6:58:f2:ca:7f:08:6d:53:fc:07:02:44:24:c6:
                    b4:34:4c:8c:04:fe:33:0e:40:e2:20:ba:02:73:5a:
                    f7:f5:4f:63:6e:cc:c6:b6:df:54:1d:37:39:7d:51:
                    36:26:5f:bd:dc:3f:a8:8b:6b:a2:ae:b6:9d:d6:21:
                    e7:df:41:b8:7a:28:2a:68:48:ca:a8:2d:ed:e1:e9:
                    46:5e:5a:72:6d:b4:84:38:87:91:fd:94:11:0b:28:
                    84:c6:c2:2f:2a:fb:01:f9:36:7a:09:75:d1:33:88:
                    3c:73:41:5b:c8:bf:94:89:70:a1:f0:c0:b9:2e:50:
                    53:1e:b1:17:64:69:f4:2d:81:e0:a9:0d:0e:32:e9:
                    ba:55:8a:85:f1:1b:6f:49:79:b4:7f:88:c3:0d:3e:
                    54:88:9b:3d:1f:38:8c:04:f3:ee:6a:63:2b:f5:c6:
                    db:b4:83:aa:c4:78:41:3a:7d:4b:e1:c8:3e:71:ca:
                    1b:61:59:ea:c6:c4:ca:32:5e:c9:e9:bf:12:29:e6:
                    c6:c3:63:fe:a0:55:da:7a:f1:60:98:4d:26:ed:fa:
                    70:2d
                Exponent: 65537 (0x10001)
        X509v3 extensions:
            X509v3 Key Usage: 
                Digital Signature, Key Encipherment
            X509v3 Basic Constraints: 
                CA:FALSE
            Netscape Cert Type: 
                SSL Server
            Netscape Comment: 
                OpenSSL Generated Server Certificate
            X509v3 Subject Key Identifier: 
                53:3F:ED:5D:09:07:B3:65:7B:AB:45:C9:24:5B:09:77:80:0A:96:ED
            X509v3 Authority Key Identifier: 
                keyid:F4:A7:C0:CC:91:46:AF:64:F3:91:F2:27:F8:C8:B2:6F:8A:87:32:73
                DirName:/C=DE/ST=Hessen/O=privacyidea/CN=CA001
                serial:FB:C8:EB:AC:83:CD:12:07

            X509v3 Extended Key Usage: 
                TLS Web Server Authentication
    Signature Algorithm: sha256WithRSAEncryption
         4e:dd:db:07:63:1b:9d:0e:3f:80:8d:d6:e9:fe:16:cc:b1:34:
         e1:d1:80:94:44:bb:63:f2:14:d1:05:7c:57:28:f4:f3:6b:1c:
         d8:e8:3c:85:a4:39:d1:1a:5c:6c:f7:b7:fd:e6:68:87:1a:f3:
         a8:44:9c:e5:28:0a:f9:0e:64:4d:80:74:aa:3b:d1:b9:16:74:
         d3:8b:d3:d3:22:e4:a0:24:8c:13:32:75:1f:59:09:69:56:3b:
         22:c4:61:93:0f:26:ee:e6:e2:25:22:3e:d3:87:1f:ef:06:d0:
         91:52:e8:a1:c1:09:7c:59:60:d4:67:9e:bb:cc:da:80:8f:dd:
         70:b4:06:70:d9:8d:44:0f:2c:0d:72:90:d4:27:ad:04:c2:42:
         25:a1:0b:9a:29:33:80:7e:53:f4:e1:03:24:fe:4d:3a:29:21:
         e7:ba:e3:57:d1:1e:38:27:20:22:8a:27:68:60:3d:01:f7:3c:
         6c:48:ec:ae:2e:25:98:87:d0:00:b2:fd:24:91:85:a0:95:1d:
         df:72:ce:25:f7:d3:3b:a9:73:d7:28:8e:af:ff:05:7e:8a:75:
         9b:84:98:d4:e2:a2:ce:a5:a5:43:ad:28:fe:10:30:6f:d2:39:
         9e:64:0f:3f:22:67:a5:01:9d:9a:d3:17:24:0d:6f:94:76:4d:
         ae:dc:0a:fa
-----BEGIN CERTIFICATE-----
MIIEJjCCAw6gAwIBAgIEEAAA0TANBgkqhkiG9w0BAQsFADBEMQswCQYDVQQGEwJE
RTEPMA0GA1UECAwGSGVzc2VuMRQwEgYDVQQKDAtwcml2YWN5aWRlYTEOMAwGA1UE
AwwFQ0EwMDEwHhcNMTcwOTE4MTE0MjAzWhcNMTgwOTE4MTE0MjAzWjBUMQswCQYD
VQQGEwJERTEPMA0GA1UECAwGSGVzc2VuMRQwEgYDVQQKDAtwcml2YWN5aWRlYTEe
MBwGA1UEAwwVcmVxdWVzdGVyLmxvY2FsZG9tYWluMIIBIjANBgkqhkiG9w0BAQEF
AAOCAQ8AMIIBCgKCAQEAzb4UT/rOAT9CIhsdnK/dktJ/22y3PjlDQ2sTA/EF9Ad0
vHZpKAuvGY7X/OPNxljyyn8IbVP8BwJEJMa0NEyMBP4zDkDiILoCc1r39U9jbszG
tt9UHTc5fVE2Jl+93D+oi2uirrad1iHn30G4eigqaEjKqC3t4elGXlpybbSEOIeR
/ZQRCyiExsIvKvsB+TZ6CXXRM4g8c0FbyL+UiXCh8MC5LlBTHrEXZGn0LYHgqQ0O
Mum6VYqF8RtvSXm0f4jDDT5UiJs9HziMBPPuamMr9cbbtIOqxHhBOn1L4cg+ccob
YVnqxsTKMl7J6b8SKebGw2P+oFXaevFgmE0m7fpwLQIDAQABo4IBDjCCAQowCwYD
VR0PBAQDAgWgMAkGA1UdEwQCMAAwEQYJYIZIAYb4QgEBBAQDAgZAMDMGCWCGSAGG
+EIBDQQmFiRPcGVuU1NMIEdlbmVyYXRlZCBTZXJ2ZXIgQ2VydGlmaWNhdGUwHQYD
VR0OBBYEFFM/7V0JB7Nle6tFySRbCXeACpbtMHQGA1UdIwRtMGuAFPSnwMyRRq9k
85HyJ/jIsm+KhzJzoUikRjBEMQswCQYDVQQGEwJERTEPMA0GA1UECAwGSGVzc2Vu
MRQwEgYDVQQKDAtwcml2YWN5aWRlYTEOMAwGA1UEAwwFQ0EwMDGCCQD7yOusg80S
BzATBgNVHSUEDDAKBggrBgEFBQcDATANBgkqhkiG9w0BAQsFAAOCAQEATt3bB2Mb
nQ4/gI3W6f4WzLE04dGAlES7Y/IU0QV8Vyj082sc2Og8haQ50RpcbPe3/eZohxrz
qESc5SgK+Q5kTYB0qjvRuRZ004vT0yLkoCSMEzJ1H1kJaVY7IsRhkw8m7ubiJSI+
04cf7wbQkVLoocEJfFlg1Geeu8zagI/dcLQGcNmNRA8sDXKQ1CetBMJCJaELmikz
gH5T9OEDJP5NOikh57rjV9EeOCcgIoonaGA9Afc8bEjsri4lmIfQALL9JJGFoJUd
33LOJffTO6lz1yiOr/8Ffop1m4SY1OKizqWlQ60o/hAwb9I5nmQPPyJnpQGdmtMX
JA1vlHZNrtwK+g==
-----END CERTIFICATE-----
