Certificate:
    Data:
        Version: 3 (0x2)
        Serial Number: 268435671 (0x100000d7)
    Signature Algorithm: sha256WithRSAEncryption
        Issuer: C=DE, ST=Hessen, O=privacyidea, CN=CA001
        Validity
            Not Before: Sep 18 11:53:57 2017 GMT
            Not After : Sep 18 11:53:57 2018 GMT
        Subject: CN=selfservice,CN=user,O=realm1/emailAddress=meine
        Subject Public Key Info:
            Public Key Algorithm: rsaEncryption
                Public-Key: (2048 bit)
                Modulus:
                    00:cf:3c:d4:33:0e:12:c4:e6:da:cd:b6:56:a1:1c:
                    26:bb:26:1c:8a:4a:73:a8:58:8a:b6:1e:b3:8b:99:
                    d2:1d:07:c2:92:89:79:c0:69:d8:c8:df:28:61:98:
                    1e:b3:fe:ae:2b:bd:78:a9:f7:6e:47:dc:a3:a0:16:
                    8c:85:02:c1:4e:92:fd:72:6e:f0:c8:03:29:9b:b8:
                    00:6e:c0:83:95:c8:34:20:36:9c:b3:e5:e4:e6:76:
                    73:a3:1a:ad:40:96:e0:53:54:00:ec:76:79:9a:c6:
                    0d:7e:b6:bd:29:ec:83:f3:cb:89:a4:cb:6c:00:ba:
                    0c:c5:78:0f:ff:69:b8:94:f4:04:70:43:3f:d8:9e:
                    d7:a7:fb:5d:ce:75:8e:da:e7:c4:07:b1:9d:de:6f:
                    88:4b:b6:4d:9a:cf:f9:bc:fa:9f:cd:32:6d:f6:3a:
                    0b:0d:23:42:78:ec:97:42:bf:0e:4d:60:56:e1:d3:
                    02:f2:19:cb:84:57:90:e5:70:a1:a2:83:35:86:e2:
                    da:86:9f:f9:8a:c4:79:b3:52:28:da:cb:bb:34:ca:
                    d3:da:91:4a:cf:8d:76:a2:b2:6b:9b:f9:96:fd:09:
                    2a:da:11:23:4d:f0:cb:d6:b2:b1:0e:12:6c:9a:19:
                    65:98:87:ca:e4:ee:24:ce:44:ac:90:8f:9d:1b:c5:
                    2a:9d
                Exponent: 65537 (0x10001)
        X509v3 extensions:
            X509v3 Key Usage: 
                Digital Signature, Key Encipherment
            X509v3 Basic Constraints: 
                CA:FALSE
            Netscape Cert Type: 
                SSL Server
            Netscape Comment: 
                OpenSSL Generated Server Certificate
            X509v3 Subject Key Identifier: 
                4D:07:90:AD:FF:1D:0D:E7:1A:DD:D6:2E:FA:BA:34:CB:AA:1F:24:C6
            X509v3 Authority Key Identifier: 
                keyid:F4:A7:C0:CC:91:46:AF:64:F3:91:F2:27:F8:C8:B2:6F:8A:87:32:73
                DirName:/C=DE/ST=Hessen/O=privacyidea/CN=CA001
                serial:FB:C8:EB:AC:83:CD:12:07

            X509v3 Extended Key Usage: 
                TLS Web Server Authentication
    Signature Algorithm: sha256WithRSAEncryption
         16:d2:42:62:7d:9b:af:94:d7:55:cb:dc:6b:26:14:fb:25:c5:
         76:80:ce:08:b8:ad:2d:ca:90:3e:db:54:01:d2:e2:80:08:32:
         dc:e7:54:8a:bb:73:0f:c2:bf:85:c2:76:ad:1a:c0:fe:5c:42:
         44:d4:de:3b:e9:26:e3:50:63:36:bc:11:4c:5d:85:80:ae:45:
         d2:bc:bb:20:c0:67:b8:5e:63:b3:95:89:55:94:81:df:ee:56:
         d5:0a:0e:d3:a0:33:cf:b2:a7:73:d4:d3:5e:ad:4a:02:5b:2c:
         6c:da:a5:c9:0c:88:3c:b6:56:d6:c1:5f:d4:03:f8:6b:23:e7:
         08:9b:dd:f9:b5:14:32:91:ad:53:e5:a0:db:5a:2b:32:f0:42:
         ba:42:43:38:ef:2e:9e:be:98:3e:b4:dd:53:c1:76:58:20:22:
         4d:7e:63:38:a4:0c:fc:fe:ac:92:0c:e7:3f:e5:06:60:08:11:
         c2:2b:81:00:cf:66:38:8e:d0:08:f3:ea:bf:de:2a:44:30:2d:
         20:d4:27:00:47:fb:04:90:a3:52:3b:02:79:66:17:35:fb:26:
         da:26:a0:60:c4:b0:f3:d5:f0:b1:cd:46:ed:2b:28:86:d3:09:
         67:e6:0a:a5:17:6d:98:54:39:72:6c:f5:b4:b3:38:0a:92:64:
         b7:ce:95:fc
-----BEGIN CERTIFICATE-----
MIIEDzCCAvegAwIBAgIEEAAA1zANBgkqhkiG9w0BAQsFADBEMQswCQYDVQQGEwJE
RTEPMA0GA1UECAwGSGVzc2VuMRQwEgYDVQQKDAtwcml2YWN5aWRlYTEOMAwGA1UE
AwwFQ0EwMDEwHhcNMTcwOTE4MTE1MzU3WhcNMTgwOTE4MTE1MzU3WjA9MSUwIwYD
VQQDDBxzZWxmc2VydmljZSxDTj11c2VyLE89cmVhbG0xMRQwEgYJKoZIhvcNAQkB
FgVtZWluZTCCASIwDQYJKoZIhvcNAQEBBQADggEPADCCAQoCggEBAM881DMOEsTm
2s22VqEcJrsmHIpKc6hYirYes4uZ0h0HwpKJecBp2MjfKGGYHrP+riu9eKn3bkfc
o6AWjIUCwU6S/XJu8MgDKZu4AG7Ag5XINCA2nLPl5OZ2c6MarUCW4FNUAOx2eZrG
DX62vSnsg/PLiaTLbAC6DMV4D/9puJT0BHBDP9ie16f7Xc51jtrnxAexnd5viEu2
TZrP+bz6n80ybfY6Cw0jQnjsl0K/Dk1gVuHTAvIZy4RXkOVwoaKDNYbi2oaf+YrE
ebNSKNrLuzTK09qRSs+NdqKya5v5lv0JKtoRI03wy9aysQ4SbJoZZZiHyuTuJM5E
rJCPnRvFKp0CAwEAAaOCAQ4wggEKMAsGA1UdDwQEAwIFoDAJBgNVHRMEAjAAMBEG
CWCGSAGG+EIBAQQEAwIGQDAzBglghkgBhvhCAQ0EJhYkT3BlblNTTCBHZW5lcmF0
ZWQgU2VydmVyIENlcnRpZmljYXRlMB0GA1UdDgQWBBRNB5Ct/x0N5xrd1i76ujTL
qh8kxjB0BgNVHSMEbTBrgBT0p8DMkUavZPOR8if4yLJviocyc6FIpEYwRDELMAkG
A1UEBhMCREUxDzANBgNVBAgMBkhlc3NlbjEUMBIGA1UECgwLcHJpdmFjeWlkZWEx
DjAMBgNVBAMMBUNBMDAxggkA+8jrrIPNEgcwEwYDVR0lBAwwCgYIKwYBBQUHAwEw
DQYJKoZIhvcNAQELBQADggEBABbSQmJ9m6+U11XL3GsmFPslxXaAzgi4rS3KkD7b
VAHS4oAIMtznVIq7cw/Cv4XCdq0awP5cQkTU3jvpJuNQYza8EUxdhYCuRdK8uyDA
Z7heY7OViVWUgd/uVtUKDtOgM8+yp3PU016tSgJbLGzapckMiDy2VtbBX9QD+Gsj
5wib3fm1FDKRrVPloNtaKzLwQrpCQzjvLp6+mD603VPBdlggIk1+YzikDPz+rJIM
5z/lBmAIEcIrgQDPZjiO0Ajz6r/eKkQwLSDUJwBH+wSQo1I7AnlmFzX7JtomoGDE
sPPV8LHNRu0rKIbTCWfmCqUXbZhUOXJs9bSzOAqSZLfOlfw=
-----END CERTIFICATE-----
