Certificate:
    Data:
        Version: 3 (0x2)
        Serial Number: 268435667 (0x100000d3)
    Signature Algorithm: sha256WithRSAEncryption
        Issuer: C=DE, ST=Hessen, O=privacyidea, CN=CA001
        Validity
            Not Before: Sep 18 11:42:04 2017 GMT
            Not After : Sep 18 11:42:04 2018 GMT
        Subject: CN=Steve Test/emailAddress=steve@openssl.org
        Subject Public Key Info:
            Public Key Algorithm: rsaEncryption
                Public-Key: (2048 bit)
                Modulus:
                    00:d2:81:89:20:51:48:0f:73:f4:11:32:24:d5:1f:
                    1c:fd:5c:f5:b6:e6:c5:f0:52:81:dc:d2:af:66:4a:
                    7c:93:31:61:5c:af:d1:6d:06:70:03:60:7c:72:0c:
                    88:dd:49:cd:9e:02:6c:d2:5a:d7:53:0f:f3:da:be:
                    69:64:b5:0f:0c:00:e3:b3:50:47:a3:b3:9b:ba:13:
                    50:d6:58:5a:4b:ab:39:e0:11:ca:0a:27:67:03:78:
                    22:66:6d:92:1e:1b:5c:49:ae:e6:6b:d1:8e:3b:9d:
                    06:d3:c6:ac:4d:53:43:10:ab:e8:96:c1:87:82:97:
                    99:8f:20:d3:99:12:37:31:84:e1:8a:ff:29:03:5f:
                    22:90:3e:7f:9b:e0:20:c1:ad:dc:ae:4c:39:1a:31:
                    96:17:02:8c:b2:d9:b4:0d:20:12:9b:7d:86:54:fd:
                    33:fd:c1:2a:62:46:f8:60:96:cf:6e:01:6f:22:df:
                    13:47:e7:97:ec:05:72:23:a3:62:f8:fa:ef:ac:9c:
                    72:f0:37:cb:2f:37:cf:90:a8:27:51:86:c6:d7:78:
                    08:8f:7e:25:a2:15:70:a2:fb:1c:b6:15:5e:a0:97:
                    8b:81:4c:09:28:8a:27:3b:94:bc:71:db:5b:71:37:
                    9a:2b:16:e0:6f:b5:c9:f5:4b:4f:20:ba:65:cf:af:
                    ad:ad
                Exponent: 65537 (0x10001)
        X509v3 extensions:
            X509v3 Key Usage: 
                Digital Signature, Key Encipherment
            X509v3 Basic Constraints: 
                CA:FALSE
            Netscape Cert Type: 
                SSL Server
            Netscape Comment: 
                OpenSSL Generated Server Certificate
            X509v3 Subject Key Identifier: 
                E5:25:6D:3E:AF:0D:DD:3F:4C:F2:45:19:39:D5:14:DB:7E:9C:C0:AD
            X509v3 Authority Key Identifier: 
                keyid:F4:A7:C0:CC:91:46:AF:64:F3:91:F2:27:F8:C8:B2:6F:8A:87:32:73
                DirName:/C=DE/ST=Hessen/O=privacyidea/CN=CA001
                serial:FB:C8:EB:AC:83:CD:12:07

            X509v3 Extended Key Usage: 
                TLS Web Server Authentication
    Signature Algorithm: sha256WithRSAEncryption
         4e:f2:08:85:9b:f0:1c:36:a9:f6:c6:a9:3e:d6:1f:40:12:d0:
         17:f9:a6:e7:91:e0:51:6d:b4:63:6d:bb:c6:2a:36:3c:74:05:
         d8:27:06:42:0d:13:b3:0a:43:31:1f:89:f9:c3:3f:73:7e:8c:
         78:71:a6:7f:58:8a:55:79:87:15:25:81:42:39:af:5c:4c:d0:
         c9:10:1e:35:11:d4:8a:32:53:bf:f0:ed:cb:a6:e8:37:9f:08:
         39:71:df:79:52:b5:d1:a3:df:ed:9b:a3:43:d8:df:0c:5e:df:
         8e:20:33:49:f8:63:56:5c:0a:1c:0b:67:85:06:c2:8c:2a:c7:
         30:30:8e:d0:42:21:e1:63:34:30:19:49:c9:db:b2:86:2c:11:
         79:a9:3a:a2:b7:68:3b:1d:79:f3:ee:4e:5a:c1:8d:7f:f4:25:
         3d:45:2c:96:60:19:a5:c4:b9:70:dd:d7:81:51:86:84:b4:ee:
         d7:77:b9:e0:00:8d:6e:9f:8b:6c:81:40:05:26:8f:4b:c7:a9:
         a6:26:69:c0:5a:08:cd:32:ee:ab:a9:49:ef:e4:97:12:69:cf:
         12:fb:a5:af:94:dc:01:57:c7:3f:2b:66:2a:21:bb:91:9e:34:
         e4:15:24:0f:7b:da:dc:58:bf:dd:2d:24:60:87:69:50:60:6d:
         e6:69:02:db
-----BEGIN CERTIFICATE-----
MIIECTCCAvGgAwIBAgIEEAAA0zANBgkqhkiG9w0BAQsFADBEMQswCQYDVQQGEwJE
RTEPMA0GA1UECAwGSGVzc2VuMRQwEgYDVQQKDAtwcml2YWN5aWRlYTEOMAwGA1UE
AwwFQ0EwMDEwHhcNMTcwOTE4MTE0MjA0WhcNMTgwOTE4MTE0MjA0WjA3MRMwEQYD
VQQDDApTdGV2ZSBUZXN0MSAwHgYJKoZIhvcNAQkBFhFzdGV2ZUBvcGVuc3NsLm9y
ZzCCASIwDQYJKoZIhvcNAQEBBQADggEPADCCAQoCggEBANKBiSBRSA9z9BEyJNUf
HP1c9bbmxfBSgdzSr2ZKfJMxYVyv0W0GcANgfHIMiN1JzZ4CbNJa11MP89q+aWS1
DwwA47NQR6Ozm7oTUNZYWkurOeARygonZwN4ImZtkh4bXEmu5mvRjjudBtPGrE1T
QxCr6JbBh4KXmY8g05kSNzGE4Yr/KQNfIpA+f5vgIMGt3K5MORoxlhcCjLLZtA0g
Ept9hlT9M/3BKmJG+GCWz24BbyLfE0fnl+wFciOjYvj676yccvA3yy83z5CoJ1GG
xtd4CI9+JaIVcKL7HLYVXqCXi4FMCSiKJzuUvHHbW3E3misW4G+1yfVLTyC6Zc+v
ra0CAwEAAaOCAQ4wggEKMAsGA1UdDwQEAwIFoDAJBgNVHRMEAjAAMBEGCWCGSAGG
+EIBAQQEAwIGQDAzBglghkgBhvhCAQ0EJhYkT3BlblNTTCBHZW5lcmF0ZWQgU2Vy
dmVyIENlcnRpZmljYXRlMB0GA1UdDgQWBBTlJW0+rw3dP0zyRRk51RTbfpzArTB0
BgNVHSMEbTBrgBT0p8DMkUavZPOR8if4yLJviocyc6FIpEYwRDELMAkGA1UEBhMC
REUxDzANBgNVBAgMBkhlc3NlbjEUMBIGA1UECgwLcHJpdmFjeWlkZWExDjAMBgNV
BAMMBUNBMDAxggkA+8jrrIPNEgcwEwYDVR0lBAwwCgYIKwYBBQUHAwEwDQYJKoZI
hvcNAQELBQADggEBAE7yCIWb8Bw2qfbGqT7WH0AS0Bf5pueR4FFttGNtu8YqNjx0
BdgnBkINE7MKQzEfifnDP3N+jHhxpn9YilV5hxUlgUI5r1xM0MkQHjUR1IoyU7/w
7cum6DefCDlx33lStdGj3+2bo0PY3wxe344gM0n4Y1ZcChwLZ4UGwowqxzAwjtBC
IeFjNDAZScnbsoYsEXmpOqK3aDsdefPuTlrBjX/0JT1FLJZgGaXEuXDd14FRhoS0
7td3ueAAjW6fi2yBQAUmj0vHqaYmacBaCM0y7qupSe/klxJpzxL7pa+U3AFXxz8r
Ziohu5GeNOQVJA972txYv90tJGCHaVBgbeZpAts=
-----END CERTIFICATE-----
