Certificate:
    Data:
        Version: 3 (0x2)
        Serial Number: 268435670 (0x100000d6)
    Signature Algorithm: sha256WithRSAEncryption
        Issuer: C=DE, ST=Hessen, O=privacyidea, CN=CA001
        Validity
            Not Before: Sep 18 11:45:39 2017 GMT
            Not After : Sep 18 11:45:39 2018 GMT
        Subject: OU=realm1, CN=cornelius/emailAddress=user@localhost.localdomain
        Subject Public Key Info:
            Public Key Algorithm: rsaEncryption
                Public-Key: (2048 bit)
                Modulus:
                    00:dd:63:3c:db:8f:3e:48:9b:9a:50:72:d5:ab:0d:
                    46:6a:fa:39:6e:1e:dd:4f:be:77:f9:e1:72:bc:9a:
                    4d:8b:d6:82:30:c7:32:f2:7c:84:e0:13:5c:20:65:
                    6e:06:59:1b:fa:15:6f:bb:eb:d7:f8:73:71:dd:ba:
                    ec:a7:58:62:50:00:cc:3e:15:9f:0a:30:57:8e:93:
                    48:8c:c0:fc:85:c7:c5:dc:6f:9b:88:96:ba:3f:0e:
                    c3:80:eb:5c:1c:a8:be:39:0d:11:09:9e:19:84:db:
                    7f:ae:d3:47:6a:a3:eb:e6:fd:04:8f:50:d4:4d:59:
                    3e:48:f9:8f:d8:58:09:4f:c3:e4:41:1f:cb:b9:a3:
                    bd:88:62:2d:fe:f5:d4:e7:19:c0:0a:b0:bf:04:2b:
                    e1:06:8a:46:1d:f9:44:b4:d2:eb:12:40:df:17:ed:
                    94:3e:aa:c5:cb:96:85:99:e9:8f:94:9e:c7:e5:78:
                    ba:84:ab:0c:9b:a5:c4:a3:91:41:38:26:1b:cf:00:
                    2b:96:56:b5:5b:61:92:34:59:70:68:17:d8:a1:bc:
                    4a:77:99:87:b6:6d:34:1c:fb:b6:c5:aa:a0:23:b8:
                    b7:f2:5e:db:b1:29:f2:d1:14:11:6b:05:49:ee:e0:
                    a0:07:16:bd:3d:53:26:5f:56:b4:c2:02:20:f5:de:
                    ce:3d
                Exponent: 65537 (0x10001)
        X509v3 extensions:
            X509v3 Key Usage: 
                Digital Signature, Key Encipherment
            X509v3 Basic Constraints: 
                CA:FALSE
            Netscape Cert Type: 
                SSL Server
            Netscape Comment: 
                OpenSSL Generated Server Certificate
            X509v3 Subject Key Identifier: 
                5A:3C:86:A6:33:B0:31:38:A7:25:01:91:7D:70:37:BC:41:EA:43:93
            X509v3 Authority Key Identifier: 
                keyid:F4:A7:C0:CC:91:46:AF:64:F3:91:F2:27:F8:C8:B2:6F:8A:87:32:73
                DirName:/C=DE/ST=Hessen/O=privacyidea/CN=CA001
                serial:FB:C8:EB:AC:83:CD:12:07

            X509v3 Extended Key Usage: 
                TLS Web Server Authentication
    Signature Algorithm: sha256WithRSAEncryption
         7f:8b:9d:a0:ee:aa:17:9b:9a:b6:7e:db:13:a6:52:f5:93:d7:
         40:b5:57:79:d4:39:3d:05:16:cf:b7:39:4e:05:ab:72:f6:58:
         3e:e9:6a:94:3f:ed:b5:c0:40:b8:c2:96:58:51:49:f2:39:08:
         ad:d3:13:7e:c0:c0:92:1c:9a:35:34:e1:3f:16:5c:4c:cf:db:
         a6:44:19:bf:99:f2:90:6c:4a:71:c8:60:e8:10:8b:92:71:61:
         50:62:da:c7:24:fb:85:57:e4:94:c3:89:5a:31:03:ce:b8:c2:
         75:6a:50:03:81:0c:bc:65:c5:33:d5:b5:41:4f:d3:29:3e:e7:
         ac:14:39:bf:fa:4b:ec:54:cf:d0:01:67:73:07:7c:b1:42:c5:
         a7:ec:47:f1:81:80:bf:ea:c4:d7:b7:ca:9d:95:82:f8:5f:19:
         1d:af:95:18:39:ab:18:3c:2c:1a:60:f7:76:49:9b:85:7c:19:
         b1:05:2c:24:72:06:05:94:06:78:9b:0c:3e:74:67:99:62:f6:
         64:1e:b5:d8:a8:e8:03:14:be:9b:48:e2:54:6f:3f:7e:bc:0f:
         b6:40:04:5f:67:47:73:80:4c:3c:a6:fd:7f:e8:cd:1d:48:7a:
         44:48:9e:78:32:15:a5:ad:99:e0:ea:cc:20:4c:ec:8f:1c:86:
         eb:28:de:47
-----BEGIN CERTIFICATE-----
MIIEIjCCAwqgAwIBAgIEEAAA1jANBgkqhkiG9w0BAQsFADBEMQswCQYDVQQGEwJE
RTEPMA0GA1UECAwGSGVzc2VuMRQwEgYDVQQKDAtwcml2YWN5aWRlYTEOMAwGA1UE
AwwFQ0EwMDEwHhcNMTcwOTE4MTE0NTM5WhcNMTgwOTE4MTE0NTM5WjBQMQ8wDQYD
VQQLDAZyZWFsbTExEjAQBgNVBAMMCWNvcm5lbGl1czEpMCcGCSqGSIb3DQEJARYa
dXNlckBsb2NhbGhvc3QubG9jYWxkb21haW4wggEiMA0GCSqGSIb3DQEBAQUAA4IB
DwAwggEKAoIBAQDdYzzbjz5Im5pQctWrDUZq+jluHt1Pvnf54XK8mk2L1oIwxzLy
fITgE1wgZW4GWRv6FW+769f4c3HduuynWGJQAMw+FZ8KMFeOk0iMwPyFx8Xcb5uI
lro/DsOA61wcqL45DREJnhmE23+u00dqo+vm/QSPUNRNWT5I+Y/YWAlPw+RBH8u5
o72IYi3+9dTnGcAKsL8EK+EGikYd+US00usSQN8X7ZQ+qsXLloWZ6Y+UnsfleLqE
qwybpcSjkUE4JhvPACuWVrVbYZI0WXBoF9ihvEp3mYe2bTQc+7bFqqAjuLfyXtux
KfLRFBFrBUnu4KAHFr09UyZfVrTCAiD13s49AgMBAAGjggEOMIIBCjALBgNVHQ8E
BAMCBaAwCQYDVR0TBAIwADARBglghkgBhvhCAQEEBAMCBkAwMwYJYIZIAYb4QgEN
BCYWJE9wZW5TU0wgR2VuZXJhdGVkIFNlcnZlciBDZXJ0aWZpY2F0ZTAdBgNVHQ4E
FgQUWjyGpjOwMTinJQGRfXA3vEHqQ5MwdAYDVR0jBG0wa4AU9KfAzJFGr2TzkfIn
+Miyb4qHMnOhSKRGMEQxCzAJBgNVBAYTAkRFMQ8wDQYDVQQIDAZIZXNzZW4xFDAS
BgNVBAoMC3ByaXZhY3lpZGVhMQ4wDAYDVQQDDAVDQTAwMYIJAPvI66yDzRIHMBMG
A1UdJQQMMAoGCCsGAQUFBwMBMA0GCSqGSIb3DQEBCwUAA4IBAQB/i52g7qoXm5q2
ftsTplL1k9dAtVd51Dk9BRbPtzlOBaty9lg+6WqUP+21wEC4wpZYUUnyOQit0xN+
wMCSHJo1NOE/FlxMz9umRBm/mfKQbEpxyGDoEIuScWFQYtrHJPuFV+SUw4laMQPO
uMJ1alADgQy8ZcUz1bVBT9MpPuesFDm/+kvsVM/QAWdzB3yxQsWn7EfxgYC/6sTX
t8qdlYL4Xxkdr5UYOasYPCwaYPd2SZuFfBmxBSwkcgYFlAZ4mww+dGeZYvZkHrXY
qOgDFL6bSOJUbz9+vA+2QARfZ0dzgEw8pv1/6M0dSHpESJ54MhWlrZng6swgTOyP
HIbrKN5H
-----END CERTIFICATE-----
