Certificate:
    Data:
        Version: 3 (0x2)
        Serial Number: 268435669 (0x100000d5)
    Signature Algorithm: sha256WithRSAEncryption
        Issuer: C=DE, ST=Hessen, O=privacyidea, CN=CA001
        Validity
            Not Before: Sep 18 11:45:38 2017 GMT
            Not After : Sep 18 11:45:38 2018 GMT
        Subject: C=DE, ST=Hessen, O=privacyidea, CN=requester.localdomain
        Subject Public Key Info:
            Public Key Algorithm: rsaEncryption
                Public-Key: (2048 bit)
                Modulus:
                    00:cd:be:14:4f:fa:ce:01:3f:42:22:1b:1d:9c:af:
                    dd:92:d2:7f:db:6c:b7:3e:39:43:43:6b:13:03:f1:
                    05:f4:07:74:bc:76:69:28:0b:af:19:8e:d7:fc:e3:
                    cd:c6:58:f2:ca:7f:08:6d:53:fc:07:02:44:24:c6:
                    b4:34:4c:8c:04:fe:33:0e:40:e2:20:ba:02:73:5a:
                    f7:f5:4f:63:6e:cc:c6:b6:df:54:1d:37:39:7d:51:
                    36:26:5f:bd:dc:3f:a8:8b:6b:a2:ae:b6:9d:d6:21:
                    e7:df:41:b8:7a:28:2a:68:48:ca:a8:2d:ed:e1:e9:
                    46:5e:5a:72:6d:b4:84:38:87:91:fd:94:11:0b:28:
                    84:c6:c2:2f:2a:fb:01:f9:36:7a:09:75:d1:33:88:
                    3c:73:41:5b:c8:bf:94:89:70:a1:f0:c0:b9:2e:50:
                    53:1e:b1:17:64:69:f4:2d:81:e0:a9:0d:0e:32:e9:
                    ba:55:8a:85:f1:1b:6f:49:79:b4:7f:88:c3:0d:3e:
                    54:88:9b:3d:1f:38:8c:04:f3:ee:6a:63:2b:f5:c6:
                    db:b4:83:aa:c4:78:41:3a:7d:4b:e1:c8:3e:71:ca:
                    1b:61:59:ea:c6:c4:ca:32:5e:c9:e9:bf:12:29:e6:
                    c6:c3:63:fe:a0:55:da:7a:f1:60:98:4d:26:ed:fa:
                    70:2d
                Exponent: 65537 (0x10001)
        X509v3 extensions:
            X509v3 Key Usage: 
                Digital Signature, Key Encipherment
            X509v3 Basic Constraints: 
                CA:FALSE
            Netscape Cert Type: 
                SSL Server
            Netscape Comment: 
                OpenSSL Generated Server Certificate
            X509v3 Subject Key Identifier: 
                53:3F:ED:5D:09:07:B3:65:7B:AB:45:C9:24:5B:09:77:80:0A:96:ED
            X509v3 Authority Key Identifier: 
                keyid:F4:A7:C0:CC:91:46:AF:64:F3:91:F2:27:F8:C8:B2:6F:8A:87:32:73
                DirName:/C=DE/ST=Hessen/O=privacyidea/CN=CA001
                serial:FB:C8:EB:AC:83:CD:12:07

            X509v3 Extended Key Usage: 
                TLS Web Server Authentication
    Signature Algorithm: sha256WithRSAEncryption
         2b:ac:fb:a1:fb:1f:6e:50:0d:76:5c:64:48:a7:de:fd:21:93:
         00:46:3d:09:50:5d:86:86:46:5b:ad:9f:5b:69:93:60:d4:e2:
         63:30:5d:03:6a:13:e3:aa:11:9b:86:d0:19:db:09:30:1f:27:
         3b:f2:8d:3b:43:9b:55:0d:94:50:b9:f3:55:d2:27:fd:1c:81:
         e2:15:72:19:18:43:ef:8a:62:d2:cc:4a:fe:fe:d1:ab:9c:63:
         85:8f:25:a3:3d:ac:c8:10:52:8f:a2:50:9a:47:2e:41:1a:87:
         ed:aa:93:18:b0:48:18:eb:dd:97:91:bf:b5:8a:86:62:60:28:
         d5:8e:4f:d3:25:f2:6d:46:5a:e6:ac:82:0a:12:b8:df:c5:97:
         75:22:b1:47:d6:bc:99:da:8f:d4:e9:ef:01:33:b8:ea:52:4f:
         3c:b8:9d:a5:c5:50:02:0d:f7:6c:75:ba:be:1a:1a:91:4b:be:
         97:e3:c2:a6:7b:52:e8:f3:67:19:c9:00:d3:37:cf:94:17:21:
         99:fb:67:fb:c4:6e:b2:94:c3:9c:3a:64:4e:11:67:90:53:97:
         6d:93:f4:de:f5:18:39:80:72:d8:bb:bb:a0:ef:fe:c7:f6:6d:
         c6:53:fe:7c:ce:4f:60:43:92:f6:b3:15:d2:47:08:47:1f:08:
         98:45:5d:d4
-----BEGIN CERTIFICATE-----
MIIEJjCCAw6gAwIBAgIEEAAA1TANBgkqhkiG9w0BAQsFADBEMQswCQYDVQQGEwJE
RTEPMA0GA1UECAwGSGVzc2VuMRQwEgYDVQQKDAtwcml2YWN5aWRlYTEOMAwGA1UE
AwwFQ0EwMDEwHhcNMTcwOTE4MTE0NTM4WhcNMTgwOTE4MTE0NTM4WjBUMQswCQYD
VQQGEwJERTEPMA0GA1UECAwGSGVzc2VuMRQwEgYDVQQKDAtwcml2YWN5aWRlYTEe
MBwGA1UEAwwVcmVxdWVzdGVyLmxvY2FsZG9tYWluMIIBIjANBgkqhkiG9w0BAQEF
AAOCAQ8AMIIBCgKCAQEAzb4UT/rOAT9CIhsdnK/dktJ/22y3PjlDQ2sTA/EF9Ad0
vHZpKAuvGY7X/OPNxljyyn8IbVP8BwJEJMa0NEyMBP4zDkDiILoCc1r39U9jbszG
tt9UHTc5fVE2Jl+93D+oi2uirrad1iHn30G4eigqaEjKqC3t4elGXlpybbSEOIeR
/ZQRCyiExsIvKvsB+TZ6CXXRM4g8c0FbyL+UiXCh8MC5LlBTHrEXZGn0LYHgqQ0O
Mum6VYqF8RtvSXm0f4jDDT5UiJs9HziMBPPuamMr9cbbtIOqxHhBOn1L4cg+ccob
YVnqxsTKMl7J6b8SKebGw2P+oFXaevFgmE0m7fpwLQIDAQABo4IBDjCCAQowCwYD
VR0PBAQDAgWgMAkGA1UdEwQCMAAwEQYJYIZIAYb4QgEBBAQDAgZAMDMGCWCGSAGG
+EIBDQQmFiRPcGVuU1NMIEdlbmVyYXRlZCBTZXJ2ZXIgQ2VydGlmaWNhdGUwHQYD
VR0OBBYEFFM/7V0JB7Nle6tFySRbCXeACpbtMHQGA1UdIwRtMGuAFPSnwMyRRq9k
85HyJ/jIsm+KhzJzoUikRjBEMQswCQYDVQQGEwJERTEPMA0GA1UECAwGSGVzc2Vu
MRQwEgYDVQQKDAtwcml2YWN5aWRlYTEOMAwGA1UEAwwFQ0EwMDGCCQD7yOusg80S
BzATBgNVHSUEDDAKBggrBgEFBQcDATANBgkqhkiG9w0BAQsFAAOCAQEAK6z7ofsf
blANdlxkSKfe/SGTAEY9CVBdhoZGW62fW2mTYNTiYzBdA2oT46oRm4bQGdsJMB8n
O/KNO0ObVQ2UULnzVdIn/RyB4hVyGRhD74pi0sxK/v7Rq5xjhY8loz2syBBSj6JQ
mkcuQRqH7aqTGLBIGOvdl5G/tYqGYmAo1Y5P0yXybUZa5qyCChK438WXdSKxR9a8
mdqP1OnvATO46lJPPLidpcVQAg33bHW6vhoakUu+l+PCpntS6PNnGckA0zfPlBch
mftn+8RuspTDnDpkThFnkFOXbZP03vUYOYBy2Lu7oO/+x/ZtxlP+fM5PYEOS9rMV
0kcIRx8ImEVd1A==
-----END CERTIFICATE-----
